target datalayout = "e-m:e-p270:32:32-p271:32:32-p272:64:64-i64:64-i128:128-f80:128-n8:16:32:64-S128"
target triple = "x86_64-pc-linux-gnu"

%struct.anon = type { i8 }
%union.anon = type { %struct.anon.2 }
%struct.anon.2 = type { i8, i8, ptr, ptr }
%struct.ABIArgInfo_ = type { i32, i8, %struct.anon, %union.anon }

; Function Attrs: nounwind uwtable
define internal ptr @abi_arg_new(i32 noundef %0) #0 {
  %2 = alloca i32, align 4
  %3 = alloca ptr, align 8
  store i32 %0, ptr %2, align 4
  %4 = call ptr @calloc_arena(i64 noundef 32)
  store ptr %4, ptr %3, align 8
  %5 = load i32, ptr %2, align 4
  %6 = load ptr, ptr %3, align 8
  %7 = getelementptr inbounds %struct.ABIArgInfo_, ptr %6, i32 0, i32 1
  %8 = trunc i32 %5 to i8
  %9 = load i8, ptr %7, align 4
  %10 = and i8 %8, 63
  %11 = and i8 %9, -64
  %12 = or i8 %11, %10
  store i8 %12, ptr %7, align 4
  %13 = load ptr, ptr %3, align 8
  ret ptr %13
}

; Function Attrs: nounwind uwtable
define dso_local ptr @abi_arg_new_expand_coerce_pair(ptr noundef %0, ptr noundef %1, i32 noundef %2, i1 noundef zeroext %3) #0 {
  %5 = alloca ptr, align 8
  %6 = alloca ptr, align 8
  %7 = alloca i32, align 4
  %8 = alloca i8, align 1
  %9 = alloca ptr, align 8
  store ptr %0, ptr %5, align 8
  store ptr %1, ptr %6, align 8
  store i32 %2, ptr %7, align 4
  %10 = zext i1 %3 to i8
  store i8 %10, ptr %8, align 1
  %11 = call ptr @abi_arg_new(i32 noundef 6)
  store ptr %11, ptr %9, align 8
  %12 = load ptr, ptr %5, align 8
  %13 = load ptr, ptr %9, align 8
  %14 = getelementptr inbounds %struct.ABIArgInfo_, ptr %13, i32 0, i32 3
  %15 = getelementptr inbounds %struct.anon.2, ptr %14, i32 0, i32 2
  store ptr %12, ptr %15, align 8
  %16 = load ptr, ptr %6, align 8
  %17 = load ptr, ptr %9, align 8
  %18 = getelementptr inbounds %struct.ABIArgInfo_, ptr %17, i32 0, i32 3
  %19 = getelementptr inbounds %struct.anon.2, ptr %18, i32 0, i32 3
  store ptr %16, ptr %19, align 8
  %20 = load i32, ptr %7, align 4
  %21 = trunc i32 %20 to i8
  %22 = load ptr, ptr %9, align 8
  %23 = getelementptr inbounds %struct.ABIArgInfo_, ptr %22, i32 0, i32 3
  %24 = getelementptr inbounds %struct.anon.2, ptr %23, i32 0, i32 0
  store i8 %21, ptr %24, align 8
  %25 = load i8, ptr %8, align 1
  %26 = trunc i8 %25 to i1
  %27 = load ptr, ptr %9, align 8
  %28 = getelementptr inbounds %struct.ABIArgInfo_, ptr %27, i32 0, i32 3
  %29 = getelementptr inbounds %struct.anon.2, ptr %28, i32 0, i32 1
  %30 = zext i1 %26 to i8
  store i8 %30, ptr %29, align 1
  %31 = load ptr, ptr %9, align 8
  ret ptr %31
}