; Function Attrs: nounwind uwtable
define dso_local ptr @abi_arg_new_expand_coerce_pair(ptr noundef %0, ptr noundef %1, i32 noundef %2, i1 noundef zeroext %3) local_unnamed_addr #2 {
  %5 = zext i1 %3 to i8
  %6 = tail call ptr @calloc_arena(i64 noundef 32) #5
  %7 = getelementptr inbounds i8, ptr %6, i64 4
  %8 = load i8, ptr %7, align 4
  %9 = and i8 %8, -64
  %10 = or disjoint i8 %9, 6
  store i8 %10, ptr %7, align 4
  %11 = getelementptr inbounds i8, ptr %6, i64 8
  %12 = getelementptr inbounds i8, ptr %6, i64 16
  store ptr %0, ptr %12, align 8
  %13 = getelementptr inbounds i8, ptr %6, i64 24
  store ptr %1, ptr %13, align 8
  %14 = trunc i32 %2 to i8
  store i8 %14, ptr %11, align 8
  %15 = getelementptr inbounds i8, ptr %6, i64 9
  store i8 %5, ptr %15, align 1
  ret ptr %6
}